; Function Attrs: mustprogress uwtable
define noundef signext range(i8 0, 2) i8 @_ZN6icu_7717DateFormatSymbols12arrayCompareEPKNS_13UnicodeStringES3_i(ptr noundef %0, ptr noundef %1, i32 noundef %2) local_unnamed_addr #1 align 2 {
  %4 = icmp ne ptr %0, %1
  %5 = icmp sgt i32 %2, 0
  %or.cond = and i1 %4, %5
  br i1 %or.cond, label %.lr.ph, label %_ZNK6icu_7713UnicodeStringneERKS0_.exit.thread

.lr.ph:                                           ; preds = %3
  %6 = zext nneg i32 %2 to i64
  br label %7

7:                                                ; preds = %.lr.ph, %.preheader.backedge
  %indvars.iv12 = phi i64 [ %6, %.lr.ph ], [ %8, %.preheader.backedge ]
  %8 = add nsw i64 %indvars.iv12, -1
  %9 = getelementptr inbounds nuw %"class.icu_77::UnicodeString", ptr %0, i64 %8
  %10 = getelementptr inbounds nuw %"class.icu_77::UnicodeString", ptr %1, i64 %8
  %11 = getelementptr inbounds nuw i8, ptr %9, i64 8
  %12 = load i16, ptr %11, align 8, !tbaa !23
  %13 = and i16 %12, 1
  %.not.i.i = icmp eq i16 %13, 0
  br i1 %.not.i.i, label %18, label %14

14:                                               ; preds = %7
  %15 = getelementptr inbounds nuw i8, ptr %10, i64 8
  %16 = load i16, ptr %15, align 8, !tbaa !23
  %17 = and i16 %16, 1
  %.not = icmp eq i16 %17, 0
  br i1 %.not, label %_ZNK6icu_7713UnicodeStringneERKS0_.exit.thread, label %.preheader.backedge

18:                                               ; preds = %7
  %19 = icmp slt i16 %12, 0
  %20 = ashr i16 %12, 5
  %21 = sext i16 %20 to i32
  %22 = getelementptr inbounds nuw i8, ptr %9, i64 12
  %23 = load i32, ptr %22, align 4
  %24 = select i1 %19, i32 %23, i32 %21
  %25 = getelementptr inbounds nuw i8, ptr %10, i64 8
  %26 = load i16, ptr %25, align 8, !tbaa !23
  %27 = icmp slt i16 %26, 0
  %28 = ashr i16 %26, 5
  %29 = sext i16 %28 to i32
  %30 = getelementptr inbounds nuw i8, ptr %10, i64 12
  %31 = load i32, ptr %30, align 4
  %32 = select i1 %27, i32 %31, i32 %29
  %33 = and i16 %26, 1
  %.not9.i.i = icmp eq i16 %33, 0
  %34 = icmp eq i32 %24, %32
  %or.cond.i.i = and i1 %.not9.i.i, %34
  br i1 %or.cond.i.i, label %_ZNK6icu_7713UnicodeStringneERKS0_.exit, label %_ZNK6icu_7713UnicodeStringneERKS0_.exit.thread

_ZNK6icu_7713UnicodeStringneERKS0_.exit:          ; preds = %18
  %35 = and i16 %26, 2
  %.not.i.i.i.i = icmp eq i16 %35, 0
  %36 = getelementptr inbounds nuw i8, ptr %10, i64 10
  %37 = getelementptr inbounds nuw i8, ptr %10, i64 24
  %38 = load ptr, ptr %37, align 8
  %39 = select i1 %.not.i.i.i.i, ptr %38, ptr %36
  %40 = tail call noundef signext i8 @_ZNK6icu_7713UnicodeString8doEqualsEPKDsi(ptr noundef nonnull align 8 dereferenceable(64) %9, ptr noundef %39, i32 noundef %24)
  %.not11 = icmp eq i8 %40, 0
  br i1 %.not11, label %_ZNK6icu_7713UnicodeStringneERKS0_.exit.thread, label %.preheader.backedge

.preheader.backedge:                              ; preds = %_ZNK6icu_7713UnicodeStringneERKS0_.exit, %14
  %41 = trunc nuw i64 %8 to i32
  %42 = icmp sgt i32 %41, 0
  br i1 %42, label %7, label %_ZNK6icu_7713UnicodeStringneERKS0_.exit.thread, !llvm.loop !156

_ZNK6icu_7713UnicodeStringneERKS0_.exit.thread:   ; preds = %14, %_ZNK6icu_7713UnicodeStringneERKS0_.exit, %.preheader.backedge, %18, %3
  %.08 = phi i8 [ 1, %3 ], [ 0, %18 ], [ 1, %.preheader.backedge ], [ 0, %_ZNK6icu_7713UnicodeStringneERKS0_.exit ], [ 0, %14 ]
  ret i8 %.08
}